target datalayout = "e-m:e-p270:32:32-p271:32:32-p272:64:64-i64:64-i128:128-f80:128-n8:16:32:64-S128"
target triple = "x86_64-pc-linux-gnu"

@hf_rdm_pd_endpoint_list_change_number = internal global i32 0, align 4
@hf_rdm_pd_endpoint_list_endpoint_id = internal global i32 0, align 4
@hf_rdm_pd_endpoint_list_endpoint_type = internal global i32 0, align 4

; Function Attrs: null_pointer_is_valid sspstrong uwtable
define internal void @rdm_proto_tree_add_numeric_item(ptr noundef %0, i32 noundef %1, ptr noundef %2, ptr noundef %3, i8 noundef zeroext %4) #1 {
  %6 = alloca ptr, align 8
  %7 = alloca i32, align 4
  %8 = alloca ptr, align 8
  %9 = alloca ptr, align 8
  %10 = alloca i8, align 1
  %11 = alloca i32, align 4
  store ptr %0, ptr %6, align 8
  store i32 %1, ptr %7, align 4
  store ptr %2, ptr %8, align 8
  store ptr %3, ptr %9, align 8
  store i8 %4, ptr %10, align 1
  call void @llvm.lifetime.start.p0(i64 4, ptr %11) #4
  %12 = load ptr, ptr %9, align 8
  %13 = load i32, ptr %12, align 4
  store i32 %13, ptr %11, align 4
  %14 = load ptr, ptr %6, align 8
  %15 = load i32, ptr %7, align 4
  %16 = load ptr, ptr %8, align 8
  %17 = load i32, ptr %11, align 4
  %18 = load i8, ptr %10, align 1
  %19 = zext i8 %18 to i32
  %20 = call ptr @proto_tree_add_item(ptr noundef %14, i32 noundef %15, ptr noundef %16, i32 noundef %17, i32 noundef %19, i32 noundef 0)
  %21 = load i8, ptr %10, align 1
  %22 = zext i8 %21 to i32
  %23 = load ptr, ptr %9, align 8
  %24 = load i32, ptr %23, align 4
  %25 = add i32 %24, %22
  store i32 %25, ptr %23, align 4
  call void @llvm.lifetime.end.p0(i64 4, ptr %11) #4
  ret void
}

; Function Attrs: null_pointer_is_valid sspstrong uwtable
define internal i32 @dissect_rdm_pd_endpoint_list(ptr noundef %0, i32 noundef %1, ptr noundef %2, i8 noundef zeroext %3, i8 noundef zeroext %4) #1 {
  %6 = alloca ptr, align 8
  %7 = alloca i32, align 4
  %8 = alloca ptr, align 8
  %9 = alloca i8, align 1
  %10 = alloca i8, align 1
  store ptr %0, ptr %6, align 8
  store i32 %1, ptr %7, align 4
  store ptr %2, ptr %8, align 8
  store i8 %3, ptr %9, align 1
  store i8 %4, ptr %10, align 1
  %11 = load i8, ptr %9, align 1
  %12 = zext i8 %11 to i32
  switch i32 %12, label %37 [
    i32 33, label %13
  ]

13:                                               ; preds = %5
  %14 = load ptr, ptr %8, align 8
  %15 = load i32, ptr @hf_rdm_pd_endpoint_list_change_number, align 4
  %16 = load ptr, ptr %6, align 8
  call void @rdm_proto_tree_add_numeric_item(ptr noundef %14, i32 noundef %15, ptr noundef %16, ptr noundef %7, i8 noundef zeroext 4)
  %17 = load i8, ptr %10, align 1
  %18 = zext i8 %17 to i32
  %19 = sub i32 %18, 4
  %20 = trunc i32 %19 to i8
  store i8 %20, ptr %10, align 1
  br label %21

21:                                               ; preds = %25, %13
  %22 = load i8, ptr %10, align 1
  %23 = zext i8 %22 to i32
  %24 = icmp sge i32 %23, 3
  br i1 %24, label %25, label %36

25:                                               ; preds = %21
  %26 = load ptr, ptr %8, align 8
  %27 = load i32, ptr @hf_rdm_pd_endpoint_list_endpoint_id, align 4
  %28 = load ptr, ptr %6, align 8
  call void @rdm_proto_tree_add_numeric_item(ptr noundef %26, i32 noundef %27, ptr noundef %28, ptr noundef %7, i8 noundef zeroext 2)
  %29 = load ptr, ptr %8, align 8
  %30 = load i32, ptr @hf_rdm_pd_endpoint_list_endpoint_type, align 4
  %31 = load ptr, ptr %6, align 8
  call void @rdm_proto_tree_add_numeric_item(ptr noundef %29, i32 noundef %30, ptr noundef %31, ptr noundef %7, i8 noundef zeroext 1)
  %32 = load i8, ptr %10, align 1
  %33 = zext i8 %32 to i32
  %34 = sub i32 %33, 3
  %35 = trunc i32 %34 to i8
  store i8 %35, ptr %10, align 1
  br label %21, !llvm.loop !16

36:                                               ; preds = %21
  br label %37

37:                                               ; preds = %5, %36
  %38 = load i32, ptr %7, align 4
  ret i32 %38
}