; Function Attrs: null_pointer_is_valid sspstrong uwtable
define internal fastcc range(i32 3, 0) i32 @dissect_rdm_pd_endpoint_list(ptr noundef %0, ptr noundef %1, i8 noundef zeroext %2, i8 noundef zeroext %3) unnamed_addr #1 {
  %cond = icmp eq i8 %2, 33
  br i1 %cond, label %5, label %.loopexit

5:                                                ; preds = %4
  %6 = load i32, ptr @hf_rdm_pd_endpoint_list_change_number, align 4
  %7 = tail call ptr @proto_tree_add_item(ptr noundef %1, i32 noundef %6, ptr noundef %0, i32 noundef 23, i32 noundef 4, i32 noundef 0)
  %8 = add i8 %3, -4
  %9 = icmp ugt i8 %8, 2
  br i1 %9, label %.lr.ph, label %.loopexit

.lr.ph:                                           ; preds = %5, %.lr.ph
  %.018 = phi i8 [ %16, %.lr.ph ], [ %8, %5 ]
  %.117 = phi i32 [ %15, %.lr.ph ], [ 27, %5 ]
  %10 = load i32, ptr @hf_rdm_pd_endpoint_list_endpoint_id, align 4
  %11 = tail call ptr @proto_tree_add_item(ptr noundef %1, i32 noundef %10, ptr noundef %0, i32 noundef %.117, i32 noundef 2, i32 noundef 0)
  %12 = add nuw nsw i32 %.117, 2
  %13 = load i32, ptr @hf_rdm_pd_endpoint_list_endpoint_type, align 4
  %14 = tail call ptr @proto_tree_add_item(ptr noundef %1, i32 noundef %13, ptr noundef %0, i32 noundef %12, i32 noundef 1, i32 noundef 0)
  %15 = add nuw nsw i32 %.117, 3
  %16 = add i8 %.018, -3
  %17 = icmp ugt i8 %16, 2
  br i1 %17, label %.lr.ph, label %.loopexit, !llvm.loop !9

.loopexit:                                        ; preds = %.lr.ph, %5, %4
  %.016 = phi i32 [ 23, %4 ], [ 27, %5 ], [ %15, %.lr.ph ]
  ret i32 %.016
}